; Function Attrs: mustprogress nounwind uwtable
define hidden noundef zeroext i1 @_ZNK8CmpUNode20is_index_range_checkEv(ptr nocapture noundef nonnull readonly align 8 dereferenceable(52) %0) local_unnamed_addr #0 align 2 {
  %2 = getelementptr inbounds i8, ptr %0, i64 8
  %3 = load ptr, ptr %2, align 8
  %4 = getelementptr inbounds i8, ptr %3, i64 8
  %5 = load ptr, ptr %4, align 8
  %6 = load ptr, ptr %5, align 8
  %7 = load ptr, ptr %6, align 8
  %8 = tail call noundef i32 %7(ptr noundef nonnull align 8 dereferenceable(52) %5) #10
  %9 = icmp eq i32 %8, 230
  br i1 %9, label %10, label %23

10:                                               ; preds = %1
  %11 = load ptr, ptr %2, align 8
  %12 = getelementptr inbounds i8, ptr %11, i64 8
  %13 = load ptr, ptr %12, align 8
  %14 = getelementptr inbounds i8, ptr %13, i64 8
  %15 = load ptr, ptr %14, align 8
  %16 = getelementptr inbounds i8, ptr %15, i64 16
  %17 = load ptr, ptr %16, align 8
  %18 = getelementptr inbounds i8, ptr %11, i64 16
  %19 = load ptr, ptr %18, align 8
  %20 = tail call noundef ptr @_ZNK4Node6uncastEb(ptr noundef nonnull align 8 dereferenceable(52) %17, i1 noundef zeroext false) #10
  %21 = tail call noundef ptr @_ZNK4Node6uncastEb(ptr noundef nonnull align 8 dereferenceable(52) %19, i1 noundef zeroext false) #10
  %22 = icmp eq ptr %20, %21
  br label %23

23:                                               ; preds = %10, %1
  %24 = phi i1 [ false, %1 ], [ %22, %10 ]
  ret i1 %24
}